; ModuleID = '23/825.c'
source_filename = "23/825.c"
target datalayout = "e-m:e-p270:32:32-p271:32:32-p272:64:64-i64:64-f80:128-n8:16:32:64-S128"
target triple = "x86_64-pc-linux-gnu"

@.str = private unnamed_addr constant [3 x i8] c"%c\00", align 1
@.str.1 = private unnamed_addr constant [2 x i8] c" \00", align 1

; Function Attrs: noinline nounwind uwtable
define dso_local void @main() #0 {
  %1 = alloca [100 x i8], align 16
  %2 = alloca i8*, align 8
  %3 = alloca i8*, align 8
  %4 = alloca i8*, align 8
  %5 = alloca i32, align 4
  %6 = getelementptr inbounds [100 x i8], [100 x i8]* %1, i64 0, i64 0
  %7 = call i32 (i8*, ...) bitcast (i32 (...)* @gets to i32 (i8*, ...)*)(i8* %6)
  %8 = getelementptr inbounds [100 x i8], [100 x i8]* %1, i64 0, i64 0
  %9 = call i64 @strlen(i8* %8) #3
  %10 = trunc i64 %9 to i32
  store i32 %10, i32* %5, align 4
  %11 = getelementptr inbounds [100 x i8], [100 x i8]* %1, i64 0, i64 0
  %12 = load i32, i32* %5, align 4
  %13 = sext i32 %12 to i64
  %14 = getelementptr inbounds i8, i8* %11, i64 %13
  %15 = getelementptr inbounds i8, i8* %14, i64 -1
  store i8* %15, i8** %2, align 8
  store i8* %15, i8** %3, align 8
  store i8* %15, i8** %4, align 8
  br label %16

16:                                               ; preds = %46, %0
  %17 = load i8*, i8** %2, align 8
  %18 = getelementptr inbounds [100 x i8], [100 x i8]* %1, i64 0, i64 0
  %19 = icmp uge i8* %17, %18
  br i1 %19, label %20, label %49

20:                                               ; preds = %16
  %21 = load i8*, i8** %2, align 8
  %22 = load i8, i8* %21, align 1
  %23 = sext i8 %22 to i32
  %24 = icmp eq i32 %23, 32
  br i1 %24, label %25, label %45

25:                                               ; preds = %20
  %26 = load i8*, i8** %2, align 8
  %27 = getelementptr inbounds i8, i8* %26, i64 -1
  store i8* %27, i8** %4, align 8
  %28 = load i8*, i8** %2, align 8
  %29 = getelementptr inbounds i8, i8* %28, i64 1
  store i8* %29, i8** %2, align 8
  br label %30

30:                                               ; preds = %39, %25
  %31 = load i8*, i8** %2, align 8
  %32 = load i8*, i8** %3, align 8
  %33 = icmp ule i8* %31, %32
  br i1 %33, label %34, label %42

34:                                               ; preds = %30
  %35 = load i8*, i8** %2, align 8
  %36 = load i8, i8* %35, align 1
  %37 = sext i8 %36 to i32
  %38 = call i32 (i8*, ...) @printf(i8* getelementptr inbounds ([3 x i8], [3 x i8]* @.str, i64 0, i64 0), i32 %37)
  br label %39

39:                                               ; preds = %34
  %40 = load i8*, i8** %2, align 8
  %41 = getelementptr inbounds i8, i8* %40, i32 1
  store i8* %41, i8** %2, align 8
  br label %30

42:                                               ; preds = %30
  %43 = call i32 (i8*, ...) @printf(i8* getelementptr inbounds ([2 x i8], [2 x i8]* @.str.1, i64 0, i64 0))
  %44 = load i8*, i8** %4, align 8
  store i8* %44, i8** %3, align 8
  store i8* %44, i8** %2, align 8
  br label %45

45:                                               ; preds = %42, %20
  br label %46

46:                                               ; preds = %45
  %47 = load i8*, i8** %2, align 8
  %48 = getelementptr inbounds i8, i8* %47, i32 -1
  store i8* %48, i8** %2, align 8
  br label %16

49:                                               ; preds = %16
  %50 = getelementptr inbounds [100 x i8], [100 x i8]* %1, i64 0, i64 0
  store i8* %50, i8** %2, align 8
  br label %51

51:                                               ; preds = %60, %49
  %52 = load i8*, i8** %2, align 8
  %53 = load i8*, i8** %3, align 8
  %54 = icmp ule i8* %52, %53
  br i1 %54, label %55, label %63

55:                                               ; preds = %51
  %56 = load i8*, i8** %2, align 8
  %57 = load i8, i8* %56, align 1
  %58 = sext i8 %57 to i32
  %59 = call i32 (i8*, ...) @printf(i8* getelementptr inbounds ([3 x i8], [3 x i8]* @.str, i64 0, i64 0), i32 %58)
  br label %60

60:                                               ; preds = %55
  %61 = load i8*, i8** %2, align 8
  %62 = getelementptr inbounds i8, i8* %61, i32 1
  store i8* %62, i8** %2, align 8
  br label %51

63:                                               ; preds = %51
  ret void
}

declare dso_local i32 @gets(...) #1

; Function Attrs: nounwind readonly
declare dso_local i64 @strlen(i8*) #2

declare dso_local i32 @printf(i8*, ...) #1


!llvm.module.flags = !{!0}
!llvm.ident = !{!1}

!0 = !{i32 1, !"wchar_size", i32 4}
!1 = !{!"clang version 10.0.0-4ubuntu1 "}
